target datalayout = "e-m:e-p270:32:32-p271:32:32-p272:64:64-i64:64-i128:128-f80:128-n8:16:32:64-S128"
target triple = "x86_64-pc-linux-gnu"

%"class.gmx::FileNameOptionManager" = type { %"class.gmx::IOptionManager", %"class.std::unique_ptr" }
%"class.gmx::IOptionManager" = type { ptr }
%"class.std::unique_ptr" = type { %"struct.std::__uniq_ptr_data" }
%"struct.std::__uniq_ptr_data" = type { %"class.std::__uniq_ptr_impl" }
%"class.std::__uniq_ptr_impl" = type { %"class.std::tuple" }
%"class.std::tuple" = type { %"struct.std::_Tuple_impl" }
%"struct.std::_Tuple_impl" = type { %"struct.std::_Head_base.1" }
%"struct.std::_Head_base.1" = type { ptr }
%"class.gmx::FileNameOptionManager::Impl" = type <{ ptr, %"class.std::__cxx11::basic_string", i8, [7 x i8] }>
%"class.std::__cxx11::basic_string" = type { %"struct.std::__cxx11::basic_string<char>::_Alloc_hider", i64, %union.anon }
%"struct.std::__cxx11::basic_string<char>::_Alloc_hider" = type { ptr }
%union.anon = type { i64, [8 x i8] }
%"class.gmx::StringOption" = type { %"class.gmx::OptionTemplate", ptr, i32, i32 }
%"class.gmx::OptionTemplate" = type { %"class.gmx::AbstractOption", ptr, ptr, ptr, ptr, ptr }
%"class.gmx::AbstractOption" = type { ptr, i32, i32, ptr, ptr, %"class.gmx::FlagsTemplate", ptr }
%"class.gmx::FlagsTemplate" = type { i64 }

@.str = private unnamed_addr constant [46 x i8] c"Set the default filename for all file options\00", align 1
@_ZTVN3gmx12StringOptionE = external unnamed_addr constant { [5 x ptr] }, align 8
@_ZTVN3gmx14AbstractOptionE = linkonce_odr unnamed_addr constant { [5 x ptr] } { [5 x ptr] [ptr null, ptr @_ZTIN3gmx14AbstractOptionE, ptr @_ZN3gmx14AbstractOptionD2Ev, ptr @_ZN3gmx14AbstractOptionD0Ev, ptr @__cxa_pure_virtual] }, comdat, align 8
@_ZTIN3gmx10OptionInfoE = external constant ptr
@_ZTIN3gmx16StringOptionInfoE = linkonce_odr constant { ptr, ptr, ptr } { ptr getelementptr inbounds (ptr, ptr @_ZTVN10__cxxabiv120__si_class_type_infoE, i64 2), ptr @_ZTSN3gmx16StringOptionInfoE, ptr @_ZTIN3gmx10OptionInfoE }, comdat, align 8

; Function Attrs: mustprogress nounwind uwtable
define linkonce_odr noundef nonnull align 8 dereferenceable(8) ptr @_ZNSt10_Head_baseILm0EPN3gmx21FileNameOptionManager4ImplELb0EE7_M_headERKS4_(ptr noundef nonnull align 8 dereferenceable(8) %0) #4 comdat align 2 {
  %2 = alloca ptr, align 8
  store ptr %0, ptr %2, align 8, !tbaa !220
  %3 = load ptr, ptr %2, align 8, !tbaa !220
  %4 = getelementptr inbounds nuw %"struct.std::_Head_base.1", ptr %3, i32 0, i32 0
  ret ptr %4
}

; Function Attrs: mustprogress nounwind uwtable
define linkonce_odr noundef nonnull align 8 dereferenceable(8) ptr @_ZNSt11_Tuple_implILm0EJPN3gmx21FileNameOptionManager4ImplESt14default_deleteIS2_EEE7_M_headERKS6_(ptr noundef nonnull align 8 dereferenceable(8) %0) #4 comdat align 2 {
  %2 = alloca ptr, align 8
  store ptr %0, ptr %2, align 8, !tbaa !216
  %3 = load ptr, ptr %2, align 8, !tbaa !216
  %4 = call noundef nonnull align 8 dereferenceable(8) ptr @_ZNSt10_Head_baseILm0EPN3gmx21FileNameOptionManager4ImplELb0EE7_M_headERKS4_(ptr noundef nonnull align 8 dereferenceable(8) %3) #19
  ret ptr %4
}

; Function Attrs: mustprogress nounwind uwtable
define linkonce_odr noundef nonnull align 8 dereferenceable(8) ptr @_ZSt12__get_helperILm0EPN3gmx21FileNameOptionManager4ImplEJSt14default_deleteIS2_EEERKT0_RKSt11_Tuple_implIXT_EJS6_DpT1_EE(ptr noundef nonnull align 8 dereferenceable(8) %0) #4 comdat {
  %2 = alloca ptr, align 8
  store ptr %0, ptr %2, align 8, !tbaa !216
  %3 = load ptr, ptr %2, align 8, !tbaa !216
  %4 = call noundef nonnull align 8 dereferenceable(8) ptr @_ZNSt11_Tuple_implILm0EJPN3gmx21FileNameOptionManager4ImplESt14default_deleteIS2_EEE7_M_headERKS6_(ptr noundef nonnull align 8 dereferenceable(8) %3) #19
  ret ptr %4
}

; Function Attrs: mustprogress nounwind uwtable
define linkonce_odr noundef nonnull align 8 dereferenceable(8) ptr @_ZSt3getILm0EJPN3gmx21FileNameOptionManager4ImplESt14default_deleteIS2_EEERKNSt13tuple_elementIXT_ESt5tupleIJDpT0_EEE4typeERKSA_(ptr noundef nonnull align 8 dereferenceable(8) %0) #4 comdat {
  %2 = alloca ptr, align 8
  store ptr %0, ptr %2, align 8, !tbaa !214
  %3 = load ptr, ptr %2, align 8, !tbaa !214
  %4 = call noundef nonnull align 8 dereferenceable(8) ptr @_ZSt12__get_helperILm0EPN3gmx21FileNameOptionManager4ImplEJSt14default_deleteIS2_EEERKT0_RKSt11_Tuple_implIXT_EJS6_DpT1_EE(ptr noundef nonnull align 8 dereferenceable(8) %3) #19
  ret ptr %4
}

; Function Attrs: mustprogress nounwind uwtable
define linkonce_odr void @_ZN3gmx13FlagsTemplateINS_10OptionFlagEEC2Ev(ptr noundef nonnull align 8 dereferenceable(8) %0) unnamed_addr #4 comdat align 2 {
  %2 = alloca ptr, align 8
  store ptr %0, ptr %2, align 8, !tbaa !110
  %3 = load ptr, ptr %2, align 8
  %4 = getelementptr inbounds nuw %"class.gmx::FlagsTemplate", ptr %3, i32 0, i32 0
  store i64 0, ptr %4, align 8, !tbaa !112
  ret void
}

; Function Attrs: mustprogress nounwind uwtable
define linkonce_odr noundef ptr @_ZNKSt15__uniq_ptr_implIN3gmx21FileNameOptionManager4ImplESt14default_deleteIS2_EE6_M_ptrEv(ptr noundef nonnull align 8 dereferenceable(8) %0) #4 comdat align 2 {
  %2 = alloca ptr, align 8
  store ptr %0, ptr %2, align 8, !tbaa !212
  %3 = load ptr, ptr %2, align 8
  %4 = getelementptr inbounds nuw %"class.std::__uniq_ptr_impl", ptr %3, i32 0, i32 0
  %5 = call noundef nonnull align 8 dereferenceable(8) ptr @_ZSt3getILm0EJPN3gmx21FileNameOptionManager4ImplESt14default_deleteIS2_EEERKNSt13tuple_elementIXT_ESt5tupleIJDpT0_EEE4typeERKSA_(ptr noundef nonnull align 8 dereferenceable(8) %4) #19
  %6 = load ptr, ptr %5, align 8, !tbaa !12
  ret ptr %6
}

; Function Attrs: mustprogress uwtable
define linkonce_odr void @_ZN3gmx14AbstractOptionC2EPKc(ptr noundef nonnull align 8 dereferenceable(48) %0, ptr noundef %1) unnamed_addr #0 comdat align 2 {
  %3 = alloca ptr, align 8
  %4 = alloca ptr, align 8
  store ptr %0, ptr %3, align 8, !tbaa !56
  store ptr %1, ptr %4, align 8, !tbaa !34
  %5 = load ptr, ptr %3, align 8
  store ptr getelementptr inbounds inrange(-16, 24) ({ [5 x ptr] }, ptr @_ZTVN3gmx14AbstractOptionE, i32 0, i32 0, i32 2), ptr %5, align 8, !tbaa !8
  %6 = getelementptr inbounds nuw %"class.gmx::AbstractOption", ptr %5, i32 0, i32 1
  store i32 1, ptr %6, align 8, !tbaa !105
  %7 = getelementptr inbounds nuw %"class.gmx::AbstractOption", ptr %5, i32 0, i32 2
  store i32 1, ptr %7, align 4, !tbaa !106
  %8 = getelementptr inbounds nuw %"class.gmx::AbstractOption", ptr %5, i32 0, i32 3
  %9 = load ptr, ptr %4, align 8, !tbaa !34
  store ptr %9, ptr %8, align 8, !tbaa !107
  %10 = getelementptr inbounds nuw %"class.gmx::AbstractOption", ptr %5, i32 0, i32 4
  store ptr null, ptr %10, align 8, !tbaa !108
  %11 = getelementptr inbounds nuw %"class.gmx::AbstractOption", ptr %5, i32 0, i32 5
  call void @_ZN3gmx13FlagsTemplateINS_10OptionFlagEEC2Ev(ptr noundef nonnull align 8 dereferenceable(8) %11)
  %12 = getelementptr inbounds nuw %"class.gmx::AbstractOption", ptr %5, i32 0, i32 6
  store ptr null, ptr %12, align 8, !tbaa !109
  ret void
}

; Function Attrs: mustprogress nounwind uwtable
define linkonce_odr noundef ptr @_ZN3gmx10OptionInfo6toTypeINS_16StringOptionInfoEEEPT_v(ptr noundef nonnull align 8 dereferenceable(16) %0) #4 comdat align 2 {
  %2 = alloca ptr, align 8
  store ptr %0, ptr %2, align 8, !tbaa !37
  %3 = load ptr, ptr %2, align 8
  %4 = icmp eq ptr %3, null
  br i1 %4, label %7, label %5

5:                                                ; preds = %1
  %6 = call ptr @__dynamic_cast(ptr %3, ptr @_ZTIN3gmx10OptionInfoE, ptr @_ZTIN3gmx16StringOptionInfoE, i64 0) #19
  br label %8

7:                                                ; preds = %1
  br label %8

8:                                                ; preds = %7, %5
  %9 = phi ptr [ %6, %5 ], [ null, %7 ]
  ret ptr %9
}

; Function Attrs: mustprogress nounwind uwtable
define linkonce_odr void @_ZN3gmx14AbstractOption14setDescriptionEPKc(ptr noundef nonnull align 8 dereferenceable(48) %0, ptr noundef %1) #4 comdat align 2 {
  %3 = alloca ptr, align 8
  %4 = alloca ptr, align 8
  store ptr %0, ptr %3, align 8, !tbaa !56
  store ptr %1, ptr %4, align 8, !tbaa !34
  %5 = load ptr, ptr %3, align 8
  %6 = load ptr, ptr %4, align 8, !tbaa !34
  %7 = getelementptr inbounds nuw %"class.gmx::AbstractOption", ptr %5, i32 0, i32 4
  store ptr %6, ptr %7, align 8, !tbaa !108
  ret void
}

; Function Attrs: mustprogress nounwind uwtable
define linkonce_odr noundef nonnull align 8 dereferenceable(104) ptr @_ZN3gmx14OptionTemplateINSt7__cxx1112basic_stringIcSt11char_traitsIcESaIcEEENS_12StringOptionEE2meEv(ptr noundef nonnull align 8 dereferenceable(88) %0) #4 comdat align 2 {
  %2 = alloca ptr, align 8
  store ptr %0, ptr %2, align 8, !tbaa !52
  %3 = load ptr, ptr %2, align 8
  ret ptr %3
}

; Function Attrs: mustprogress nounwind uwtable
define linkonce_odr noundef ptr @_ZNKSt10unique_ptrIN3gmx21FileNameOptionManager4ImplESt14default_deleteIS2_EE3getEv(ptr noundef nonnull align 8 dereferenceable(8) %0) #4 comdat align 2 {
  %2 = alloca ptr, align 8
  store ptr %0, ptr %2, align 8, !tbaa !23
  %3 = load ptr, ptr %2, align 8
  %4 = getelementptr inbounds nuw %"class.std::unique_ptr", ptr %3, i32 0, i32 0
  %5 = call noundef ptr @_ZNKSt15__uniq_ptr_implIN3gmx21FileNameOptionManager4ImplESt14default_deleteIS2_EE6_M_ptrEv(ptr noundef nonnull align 8 dereferenceable(8) %4) #19
  ret ptr %5
}

; Function Attrs: mustprogress uwtable
define linkonce_odr void @_ZN3gmx14OptionTemplateINSt7__cxx1112basic_stringIcSt11char_traitsIcESaIcEEENS_12StringOptionEEC2EPKc(ptr noundef nonnull align 8 dereferenceable(88) %0, ptr noundef %1) unnamed_addr #0 comdat align 2 {
  %3 = alloca ptr, align 8
  %4 = alloca ptr, align 8
  store ptr %0, ptr %3, align 8, !tbaa !52
  store ptr %1, ptr %4, align 8, !tbaa !34
  %5 = load ptr, ptr %3, align 8
  %6 = load ptr, ptr %4, align 8, !tbaa !34
  call void @_ZN3gmx14AbstractOptionC2EPKc(ptr noundef nonnull align 8 dereferenceable(48) %5, ptr noundef %6)
  store ptr getelementptr inbounds inrange(-16, 24) ({ [5 x ptr] }, ptr @_ZTVN3gmx14OptionTemplateINSt7__cxx1112basic_stringIcSt11char_traitsIcESaIcEEENS_12StringOptionEEE, i32 0, i32 0, i32 2), ptr %5, align 8, !tbaa !8
  %7 = getelementptr inbounds nuw %"class.gmx::OptionTemplate", ptr %5, i32 0, i32 1
  store ptr null, ptr %7, align 8, !tbaa !101
  %8 = getelementptr inbounds nuw %"class.gmx::OptionTemplate", ptr %5, i32 0, i32 2
  store ptr null, ptr %8, align 8, !tbaa !102
  %9 = getelementptr inbounds nuw %"class.gmx::OptionTemplate", ptr %5, i32 0, i32 3
  store ptr null, ptr %9, align 8, !tbaa !55
  %10 = getelementptr inbounds nuw %"class.gmx::OptionTemplate", ptr %5, i32 0, i32 4
  store ptr null, ptr %10, align 8, !tbaa !103
  %11 = getelementptr inbounds nuw %"class.gmx::OptionTemplate", ptr %5, i32 0, i32 5
  store ptr null, ptr %11, align 8, !tbaa !104
  ret void
}

; Function Attrs: mustprogress nounwind uwtable
define linkonce_odr void @_ZN3gmx14AbstractOptionD2Ev(ptr noundef nonnull align 8 dereferenceable(48) %0) unnamed_addr #4 comdat align 2 {
  %2 = alloca ptr, align 8
  store ptr %0, ptr %2, align 8, !tbaa !56
  ret void
}

; Function Attrs: mustprogress uwtable
define linkonce_odr noundef ptr @_ZN3gmx17IOptionsContainer9addOptionINS_12StringOptionEEEPNT_8InfoTypeERKS3_(ptr noundef nonnull align 8 dereferenceable(8) %0, ptr noundef nonnull align 8 dereferenceable(104) %1) #0 comdat align 2 {
  %3 = alloca ptr, align 8
  %4 = alloca ptr, align 8
  %5 = alloca ptr, align 8
  store ptr %0, ptr %3, align 8, !tbaa !32
  store ptr %1, ptr %4, align 8, !tbaa !35
  %6 = load ptr, ptr %3, align 8
  call void @llvm.lifetime.start.p0(i64 8, ptr %5) #19
  %7 = load ptr, ptr %4, align 8, !tbaa !35
  %8 = load ptr, ptr %6, align 8, !tbaa !8
  %9 = getelementptr inbounds ptr, ptr %8, i64 3
  %10 = load ptr, ptr %9, align 8
  %11 = call noundef ptr %10(ptr noundef nonnull align 8 dereferenceable(8) %6, ptr noundef nonnull align 8 dereferenceable(48) %7)
  store ptr %11, ptr %5, align 8, !tbaa !37
  %12 = load ptr, ptr %5, align 8, !tbaa !37
  %13 = call noundef ptr @_ZN3gmx10OptionInfo6toTypeINS_16StringOptionInfoEEEPT_v(ptr noundef nonnull align 8 dereferenceable(16) %12)
  call void @llvm.lifetime.end.p0(i64 8, ptr %5) #19
  ret ptr %13
}

; Function Attrs: mustprogress uwtable
define linkonce_odr noundef nonnull align 8 dereferenceable(104) ptr @_ZN3gmx14OptionTemplateINSt7__cxx1112basic_stringIcSt11char_traitsIcESaIcEEENS_12StringOptionEE11descriptionEPKc(ptr noundef nonnull align 8 dereferenceable(88) %0, ptr noundef %1) #0 comdat align 2 {
  %3 = alloca ptr, align 8
  %4 = alloca ptr, align 8
  store ptr %0, ptr %3, align 8, !tbaa !52
  store ptr %1, ptr %4, align 8, !tbaa !34
  %5 = load ptr, ptr %3, align 8
  %6 = load ptr, ptr %4, align 8, !tbaa !34
  call void @_ZN3gmx14AbstractOption14setDescriptionEPKc(ptr noundef nonnull align 8 dereferenceable(48) %5, ptr noundef %6)
  %7 = call noundef nonnull align 8 dereferenceable(104) ptr @_ZN3gmx14OptionTemplateINSt7__cxx1112basic_stringIcSt11char_traitsIcESaIcEEENS_12StringOptionEE2meEv(ptr noundef nonnull align 8 dereferenceable(88) %5)
  ret ptr %7
}

; Function Attrs: mustprogress uwtable
define linkonce_odr noundef nonnull align 8 dereferenceable(104) ptr @_ZN3gmx14OptionTemplateINSt7__cxx1112basic_stringIcSt11char_traitsIcESaIcEEENS_12StringOptionEE5storeEPS6_(ptr noundef nonnull align 8 dereferenceable(88) %0, ptr noundef %1) #0 comdat align 2 {
  %3 = alloca ptr, align 8
  %4 = alloca ptr, align 8
  store ptr %0, ptr %3, align 8, !tbaa !52
  store ptr %1, ptr %4, align 8, !tbaa !54
  %5 = load ptr, ptr %3, align 8
  %6 = load ptr, ptr %4, align 8, !tbaa !54
  %7 = getelementptr inbounds nuw %"class.gmx::OptionTemplate", ptr %5, i32 0, i32 3
  store ptr %6, ptr %7, align 8, !tbaa !55
  %8 = call noundef nonnull align 8 dereferenceable(104) ptr @_ZN3gmx14OptionTemplateINSt7__cxx1112basic_stringIcSt11char_traitsIcESaIcEEENS_12StringOptionEE2meEv(ptr noundef nonnull align 8 dereferenceable(88) %5)
  ret ptr %8
}

; Function Attrs: mustprogress nounwind uwtable
define linkonce_odr noundef ptr @_ZNKSt10unique_ptrIN3gmx21FileNameOptionManager4ImplESt14default_deleteIS2_EEptEv(ptr noundef nonnull align 8 dereferenceable(8) %0) #4 comdat align 2 {
  %2 = alloca ptr, align 8
  store ptr %0, ptr %2, align 8, !tbaa !23
  %3 = load ptr, ptr %2, align 8
  %4 = call noundef ptr @_ZNKSt10unique_ptrIN3gmx21FileNameOptionManager4ImplESt14default_deleteIS2_EE3getEv(ptr noundef nonnull align 8 dereferenceable(8) %3) #19
  ret ptr %4
}

; Function Attrs: mustprogress uwtable
define linkonce_odr void @_ZN3gmx12StringOptionC2EPKc(ptr noundef nonnull align 8 dereferenceable(104) %0, ptr noundef %1) unnamed_addr #0 comdat align 2 {
  %3 = alloca ptr, align 8
  %4 = alloca ptr, align 8
  store ptr %0, ptr %3, align 8, !tbaa !35
  store ptr %1, ptr %4, align 8, !tbaa !34
  %5 = load ptr, ptr %3, align 8
  %6 = load ptr, ptr %4, align 8, !tbaa !34
  call void @_ZN3gmx14OptionTemplateINSt7__cxx1112basic_stringIcSt11char_traitsIcESaIcEEENS_12StringOptionEEC2EPKc(ptr noundef nonnull align 8 dereferenceable(88) %5, ptr noundef %6)
  store ptr getelementptr inbounds inrange(-16, 24) ({ [5 x ptr] }, ptr @_ZTVN3gmx12StringOptionE, i32 0, i32 0, i32 2), ptr %5, align 8, !tbaa !8
  %7 = getelementptr inbounds nuw %"class.gmx::StringOption", ptr %5, i32 0, i32 1
  store ptr null, ptr %7, align 8, !tbaa !39
  %8 = getelementptr inbounds nuw %"class.gmx::StringOption", ptr %5, i32 0, i32 2
  store i32 0, ptr %8, align 8, !tbaa !50
  %9 = getelementptr inbounds nuw %"class.gmx::StringOption", ptr %5, i32 0, i32 3
  store i32 -1, ptr %9, align 4, !tbaa !51
  ret void
}

; Function Attrs: mustprogress uwtable
define void @_ZN3gmx21FileNameOptionManager24addDefaultFileNameOptionEPNS_17IOptionsContainerEPKc(ptr noundef nonnull align 8 dereferenceable(16) %0, ptr noundef %1, ptr noundef %2) #0 align 2 personality ptr @__gxx_personality_v0 {
  %4 = alloca ptr, align 8
  %5 = alloca ptr, align 8
  %6 = alloca ptr, align 8
  %7 = alloca %"class.gmx::StringOption", align 8
  %8 = alloca ptr, align 8
  %9 = alloca i32, align 4
  store ptr %0, ptr %4, align 8, !tbaa !3
  store ptr %1, ptr %5, align 8, !tbaa !32
  store ptr %2, ptr %6, align 8, !tbaa !34
  %10 = load ptr, ptr %4, align 8
  %11 = load ptr, ptr %5, align 8, !tbaa !32
  call void @llvm.lifetime.start.p0(i64 104, ptr %7) #19
  %12 = load ptr, ptr %6, align 8, !tbaa !34
  call void @_ZN3gmx12StringOptionC2EPKc(ptr noundef nonnull align 8 dereferenceable(104) %7, ptr noundef %12)
  %13 = getelementptr inbounds nuw %"class.gmx::FileNameOptionManager", ptr %10, i32 0, i32 1
  %14 = call noundef ptr @_ZNKSt10unique_ptrIN3gmx21FileNameOptionManager4ImplESt14default_deleteIS2_EEptEv(ptr noundef nonnull align 8 dereferenceable(8) %13) #19
  %15 = getelementptr inbounds nuw %"class.gmx::FileNameOptionManager::Impl", ptr %14, i32 0, i32 1
  %16 = invoke noundef nonnull align 8 dereferenceable(104) ptr @_ZN3gmx14OptionTemplateINSt7__cxx1112basic_stringIcSt11char_traitsIcESaIcEEENS_12StringOptionEE5storeEPS6_(ptr noundef nonnull align 8 dereferenceable(88) %7, ptr noundef %15)
          to label %17 unwind label %22

17:                                               ; preds = %3
  %18 = invoke noundef nonnull align 8 dereferenceable(104) ptr @_ZN3gmx14OptionTemplateINSt7__cxx1112basic_stringIcSt11char_traitsIcESaIcEEENS_12StringOptionEE11descriptionEPKc(ptr noundef nonnull align 8 dereferenceable(88) %16, ptr noundef @.str)
          to label %19 unwind label %22

19:                                               ; preds = %17
  %20 = invoke noundef ptr @_ZN3gmx17IOptionsContainer9addOptionINS_12StringOptionEEEPNT_8InfoTypeERKS3_(ptr noundef nonnull align 8 dereferenceable(8) %11, ptr noundef nonnull align 8 dereferenceable(104) %18)
          to label %21 unwind label %22

21:                                               ; preds = %19
  call void @_ZN3gmx14AbstractOptionD2Ev(ptr noundef nonnull align 8 dereferenceable(104) %7) #19
  call void @llvm.lifetime.end.p0(i64 104, ptr %7) #19
  ret void

22:                                               ; preds = %19, %17, %3
  %23 = landingpad { ptr, i32 }
          cleanup
  %24 = extractvalue { ptr, i32 } %23, 0
  store ptr %24, ptr %8, align 8
  %25 = extractvalue { ptr, i32 } %23, 1
  store i32 %25, ptr %9, align 4
  call void @_ZN3gmx14AbstractOptionD2Ev(ptr noundef nonnull align 8 dereferenceable(104) %7) #19
  call void @llvm.lifetime.end.p0(i64 104, ptr %7) #19
  br label %26

26:                                               ; preds = %22
  %27 = load ptr, ptr %8, align 8
  %28 = load i32, ptr %9, align 4
  %29 = insertvalue { ptr, i32 } poison, ptr %27, 0
  %30 = insertvalue { ptr, i32 } %29, i32 %28, 1
  resume { ptr, i32 } %30
}