; Function Attrs: mustprogress uwtable
define void @_ZN3gmx21FileNameOptionManager24addDefaultFileNameOptionEPNS_17IOptionsContainerEPKc(ptr noundef nonnull readonly align 8 captures(none) dereferenceable(16) %0, ptr noundef %1, ptr noundef %2) local_unnamed_addr #0 align 2 personality ptr @__gxx_personality_v0 {
_ZN3gmx17IOptionsContainer9addOptionINS_12StringOptionEEEPNT_8InfoTypeERKS3_.exit:
  %3 = alloca %"class.gmx::StringOption", align 8
  call void @llvm.lifetime.start.p0(i64 104, ptr nonnull %3) #21
  %4 = getelementptr inbounds nuw i8, ptr %3, i64 8
  store i32 1, ptr %4, align 8, !tbaa !23
  %5 = getelementptr inbounds nuw i8, ptr %3, i64 12
  store i32 1, ptr %5, align 4, !tbaa !28
  %6 = getelementptr inbounds nuw i8, ptr %3, i64 16
  store ptr %2, ptr %6, align 8, !tbaa !29
  %7 = getelementptr inbounds nuw i8, ptr %3, i64 24
  %8 = getelementptr inbounds nuw i8, ptr %3, i64 32
  call void @llvm.memset.p0.i64(ptr noundef nonnull align 8 dereferenceable(56) %8, i8 0, i64 56, i1 false)
  store ptr getelementptr inbounds nuw inrange(-16, 24) (i8, ptr @_ZTVN3gmx12StringOptionE, i64 16), ptr %3, align 8, !tbaa !3
  %9 = getelementptr inbounds nuw i8, ptr %3, i64 88
  store ptr null, ptr %9, align 8, !tbaa !30
  %10 = getelementptr inbounds nuw i8, ptr %3, i64 96
  store i32 0, ptr %10, align 8, !tbaa !38
  %11 = getelementptr inbounds nuw i8, ptr %3, i64 100
  store i32 -1, ptr %11, align 4, !tbaa !39
  %12 = getelementptr inbounds nuw i8, ptr %0, i64 8
  %13 = load ptr, ptr %12, align 8, !tbaa !20
  %14 = getelementptr inbounds nuw i8, ptr %13, i64 8
  %15 = getelementptr inbounds nuw i8, ptr %3, i64 64
  store ptr %14, ptr %15, align 8, !tbaa !40
  store ptr @.str, ptr %7, align 8, !tbaa !41
  %16 = load ptr, ptr %1, align 8, !tbaa !3
  %17 = getelementptr inbounds nuw i8, ptr %16, i64 24
  %18 = load ptr, ptr %17, align 8
  %19 = call noundef ptr %18(ptr noundef nonnull align 8 dereferenceable(8) %1, ptr noundef nonnull align 8 dereferenceable(104) %3)
  call void @llvm.lifetime.end.p0(i64 104, ptr nonnull %3) #21
  ret void
}